target datalayout = "e-m:e-p270:32:32-p271:32:32-p272:64:64-i64:64-i128:128-f80:128-n8:16:32:64-S128"
target triple = "x86_64-pc-linux-gnu"

%"class.cv::RNG" = type { i64 }

; Function Attrs: inlinehint mustprogress nounwind uwtable
define linkonce_odr hidden noundef i32 @_ZN2cv3RNG4nextEv(ptr noundef nonnull align 8 dereferenceable(8) %0) #4 comdat align 2 {
  %2 = alloca ptr, align 8
  store ptr %0, ptr %2, align 8, !tbaa !13
  %3 = load ptr, ptr %2, align 8
  %4 = getelementptr inbounds nuw %"class.cv::RNG", ptr %3, i32 0, i32 0
  %5 = load i64, ptr %4, align 8, !tbaa !181
  %6 = trunc i64 %5 to i32
  %7 = zext i32 %6 to i64
  %8 = mul i64 %7, 4164903690
  %9 = getelementptr inbounds nuw %"class.cv::RNG", ptr %3, i32 0, i32 0
  %10 = load i64, ptr %9, align 8, !tbaa !181
  %11 = lshr i64 %10, 32
  %12 = trunc i64 %11 to i32
  %13 = zext i32 %12 to i64
  %14 = add i64 %8, %13
  %15 = getelementptr inbounds nuw %"class.cv::RNG", ptr %3, i32 0, i32 0
  store i64 %14, ptr %15, align 8, !tbaa !181
  %16 = getelementptr inbounds nuw %"class.cv::RNG", ptr %3, i32 0, i32 0
  %17 = load i64, ptr %16, align 8, !tbaa !181
  %18 = trunc i64 %17 to i32
  ret i32 %18
}

; Function Attrs: inlinehint mustprogress nounwind uwtable
define linkonce_odr hidden noundef double @_ZN2cv3RNGcvdEv(ptr noundef nonnull align 8 dereferenceable(8) %0) #4 comdat align 2 {
  %2 = alloca ptr, align 8
  %3 = alloca i32, align 4
  store ptr %0, ptr %2, align 8, !tbaa !13
  %4 = load ptr, ptr %2, align 8
  call void @llvm.lifetime.start.p0(i64 4, ptr %3) #3
  %5 = call noundef i32 @_ZN2cv3RNG4nextEv(ptr noundef nonnull align 8 dereferenceable(8) %4)
  store i32 %5, ptr %3, align 4, !tbaa !8
  %6 = load i32, ptr %3, align 4, !tbaa !8
  %7 = zext i32 %6 to i64
  %8 = shl i64 %7, 32
  %9 = call noundef i32 @_ZN2cv3RNG4nextEv(ptr noundef nonnull align 8 dereferenceable(8) %4)
  %10 = zext i32 %9 to i64
  %11 = or i64 %8, %10
  %12 = uitofp i64 %11 to double
  %13 = fmul double %12, 0x3BF0000000000000
  call void @llvm.lifetime.end.p0(i64 4, ptr %3) #3
  ret double %13
}

; Function Attrs: inlinehint mustprogress uwtable
define linkonce_odr hidden noundef double @_ZN2cv3RNG7uniformEdd(ptr noundef nonnull align 8 dereferenceable(8) %0, double noundef %1, double noundef %2) #7 comdat align 2 {
  %4 = alloca ptr, align 8
  %5 = alloca double, align 8
  %6 = alloca double, align 8
  store ptr %0, ptr %4, align 8, !tbaa !13
  store double %1, ptr %5, align 8, !tbaa !17
  store double %2, ptr %6, align 8, !tbaa !17
  %7 = load ptr, ptr %4, align 8
  %8 = call noundef double @_ZN2cv3RNGcvdEv(ptr noundef nonnull align 8 dereferenceable(8) %7)
  %9 = load double, ptr %6, align 8, !tbaa !17
  %10 = load double, ptr %5, align 8, !tbaa !17
  %11 = fsub double %9, %10
  %12 = load double, ptr %5, align 8, !tbaa !17
  %13 = call double @llvm.fmuladd.f64(double %8, double %11, double %12)
  ret double %13
}

; Function Attrs: mustprogress uwtable
define linkonce_odr hidden noundef nonnull align 8 dereferenceable(8) ptr @_ZN6cvtest2TS7get_rngEv(ptr noundef nonnull align 8 dereferenceable(280) %0) #6 comdat align 2 {
  %2 = alloca ptr, align 8
  store ptr %0, ptr %2, align 8, !tbaa !15
  %3 = call noundef nonnull align 8 dereferenceable(8) ptr @_ZN2cv6theRNGEv()
  ret ptr %3
}

; Function Attrs: mustprogress uwtable
define hidden noundef double @_ZN6cvtest12randomDoubleEdd(double noundef %0, double noundef %1) #6 {
  %3 = alloca double, align 8
  %4 = alloca double, align 8
  %5 = alloca ptr, align 8
  store double %0, ptr %3, align 8, !tbaa !17
  store double %1, ptr %4, align 8, !tbaa !17
  call void @llvm.lifetime.start.p0(i64 8, ptr %5) #3
  %6 = call noundef ptr @_ZN6cvtest2TS3ptrEv()
  %7 = call noundef nonnull align 8 dereferenceable(8) ptr @_ZN6cvtest2TS7get_rngEv(ptr noundef nonnull align 8 dereferenceable(280) %6)
  store ptr %7, ptr %5, align 8, !tbaa !13
  %8 = load ptr, ptr %5, align 8, !tbaa !13
  %9 = load double, ptr %3, align 8, !tbaa !17
  %10 = load double, ptr %4, align 8, !tbaa !17
  %11 = call noundef double @_ZN2cv3RNG7uniformEdd(ptr noundef nonnull align 8 dereferenceable(8) %8, double noundef %9, double noundef %10)
  call void @llvm.lifetime.end.p0(i64 8, ptr %5) #3
  ret double %11
}