; Function Attrs: mustprogress uwtable
define hidden noundef double @_ZN6cvtest12randomDoubleEdd(double noundef %0, double noundef %1) local_unnamed_addr #4 {
  %3 = tail call noundef ptr @_ZN6cvtest2TS3ptrEv()
  %4 = tail call noundef nonnull align 8 dereferenceable(8) ptr @_ZN2cv6theRNGEv()
  %5 = load i64, ptr %4, align 8, !tbaa !3
  %6 = and i64 %5, 4294967295
  %7 = mul nuw i64 %6, 4164903690
  %8 = lshr i64 %5, 32
  %9 = add nuw i64 %7, %8
  %10 = shl i64 %9, 32
  %11 = and i64 %9, 4294967295
  %12 = mul nuw i64 %11, 4164903690
  %13 = lshr i64 %9, 32
  %14 = add nuw i64 %12, %13
  store i64 %14, ptr %4, align 8, !tbaa !3
  %15 = and i64 %14, 4294967295
  %16 = or disjoint i64 %15, %10
  %17 = uitofp i64 %16 to double
  %18 = fmul double %17, 0x3BF0000000000000
  %19 = fsub double %1, %0
  %20 = tail call noundef double @llvm.fmuladd.f64(double %18, double %19, double %0)
  ret double %20
}